target datalayout = "e-m:e-p270:32:32-p271:32:32-p272:64:64-i64:64-i128:128-f80:128-n8:16:32:64-S128"
target triple = "x86_64-pc-linux-gnu"

%"struct.std::_Vector_base.736" = type { %"struct.std::_Vector_base<NonCopyable, std::allocator<NonCopyable>>::_Vector_impl" }
%"struct.std::_Vector_base<NonCopyable, std::allocator<NonCopyable>>::_Vector_impl" = type { %"struct.std::_Vector_base<NonCopyable, std::allocator<NonCopyable>>::_Vector_impl_data" }
%"struct.std::_Vector_base<NonCopyable, std::allocator<NonCopyable>>::_Vector_impl_data" = type { ptr, ptr, ptr }

; Function Attrs: mustprogress nounwind optsize uwtable
define internal void @_ZNSt15__new_allocatorIZL30nanobind_init_test_classes_extRN8nanobind7module_EE11NonCopyableE10deallocateEPS3_m(ptr noundef nonnull align 1 dereferenceable(1) %0, ptr noundef %1, i64 noundef %2) #1 align 2 {
  %4 = alloca ptr, align 8
  %5 = alloca ptr, align 8
  %6 = alloca i64, align 8
  store ptr %0, ptr %4, align 8, !tbaa !1385
  store ptr %1, ptr %5, align 8, !tbaa !1387
  store i64 %2, ptr %6, align 8, !tbaa !110
  %7 = load ptr, ptr %5, align 8, !tbaa !1387
  %8 = load i64, ptr %6, align 8, !tbaa !110
  %9 = mul i64 %8, 1
  call void @_ZdlPvm(ptr noundef %7, i64 noundef %9) #28
  ret void
}

; Function Attrs: mustprogress optsize uwtable
define internal void @_ZNSt16allocator_traitsISaIZL30nanobind_init_test_classes_extRN8nanobind7module_EE11NonCopyableEE10deallocateERS4_PS3_m(ptr noundef nonnull align 1 dereferenceable(1) %0, ptr noundef %1, i64 noundef %2) #3 align 2 {
  %4 = alloca ptr, align 8
  %5 = alloca ptr, align 8
  %6 = alloca i64, align 8
  store ptr %0, ptr %4, align 8, !tbaa !1376
  store ptr %1, ptr %5, align 8, !tbaa !1387
  store i64 %2, ptr %6, align 8, !tbaa !110
  %7 = load ptr, ptr %4, align 8, !tbaa !1376
  %8 = load ptr, ptr %5, align 8, !tbaa !1387
  %9 = load i64, ptr %6, align 8, !tbaa !110
  call void @_ZNSt15__new_allocatorIZL30nanobind_init_test_classes_extRN8nanobind7module_EE11NonCopyableE10deallocateEPS3_m(ptr noundef nonnull align 1 dereferenceable(1) %7, ptr noundef %8, i64 noundef %9) #25
  ret void
}

; Function Attrs: mustprogress nounwind optsize uwtable
define internal void @_ZNSt12_Destroy_auxILb1EE9__destroyIPZL30nanobind_init_test_classes_extRN8nanobind7module_EE11NonCopyableEEvT_S7_(ptr noundef %0, ptr noundef %1) #1 align 2 {
  %3 = alloca ptr, align 8
  %4 = alloca ptr, align 8
  store ptr %0, ptr %3, align 8, !tbaa !1387
  store ptr %1, ptr %4, align 8, !tbaa !1387
  ret void
}

; Function Attrs: mustprogress nounwind optsize uwtable
define internal void @_ZNSt15__new_allocatorIZL30nanobind_init_test_classes_extRN8nanobind7module_EE11NonCopyableED2Ev(ptr noundef nonnull align 1 dereferenceable(1) %0) unnamed_addr #1 align 2 {
  %2 = alloca ptr, align 8
  store ptr %0, ptr %2, align 8, !tbaa !1385
  ret void
}

; Function Attrs: mustprogress optsize uwtable
define internal void @_ZNSt12_Vector_baseIZL30nanobind_init_test_classes_extRN8nanobind7module_EE11NonCopyableSaIS3_EE13_M_deallocateEPS3_m(ptr noundef nonnull align 8 dereferenceable(24) %0, ptr noundef %1, i64 noundef %2) #3 align 2 {
  %4 = alloca ptr, align 8
  %5 = alloca ptr, align 8
  %6 = alloca i64, align 8
  store ptr %0, ptr %4, align 8, !tbaa !1372
  store ptr %1, ptr %5, align 8, !tbaa !1387
  store i64 %2, ptr %6, align 8, !tbaa !110
  %7 = load ptr, ptr %4, align 8
  %8 = load ptr, ptr %5, align 8, !tbaa !1387
  %9 = icmp ne ptr %8, null
  br i1 %9, label %10, label %14

10:                                               ; preds = %3
  %11 = getelementptr inbounds nuw %"struct.std::_Vector_base.736", ptr %7, i32 0, i32 0
  %12 = load ptr, ptr %5, align 8, !tbaa !1387
  %13 = load i64, ptr %6, align 8, !tbaa !110
  call void @_ZNSt16allocator_traitsISaIZL30nanobind_init_test_classes_extRN8nanobind7module_EE11NonCopyableEE10deallocateERS4_PS3_m(ptr noundef nonnull align 1 dereferenceable(1) %11, ptr noundef %12, i64 noundef %13) #25
  br label %14

14:                                               ; preds = %10, %3
  ret void
}

; Function Attrs: inlinehint mustprogress optsize uwtable
define internal void @_ZSt8_DestroyIPZL30nanobind_init_test_classes_extRN8nanobind7module_EE11NonCopyableEvT_S5_(ptr noundef %0, ptr noundef %1) #14 {
  %3 = alloca ptr, align 8
  %4 = alloca ptr, align 8
  store ptr %0, ptr %3, align 8, !tbaa !1387
  store ptr %1, ptr %4, align 8, !tbaa !1387
  %5 = load ptr, ptr %3, align 8, !tbaa !1387
  %6 = load ptr, ptr %4, align 8, !tbaa !1387
  call void @_ZNSt12_Destroy_auxILb1EE9__destroyIPZL30nanobind_init_test_classes_extRN8nanobind7module_EE11NonCopyableEEvT_S7_(ptr noundef %5, ptr noundef %6) #25
  ret void
}

; Function Attrs: noinline noreturn nounwind optsize uwtable
define linkonce_odr hidden void @__clang_call_terminate(ptr noundef %0) #11 comdat {
  %2 = call ptr @__cxa_begin_catch(ptr %0) #2
  call void @_ZSt9terminatev() #26
  unreachable
}

; Function Attrs: mustprogress nounwind optsize uwtable
define internal void @_ZNSt12_Vector_baseIZL30nanobind_init_test_classes_extRN8nanobind7module_EE11NonCopyableSaIS3_EED2Ev(ptr noundef nonnull align 8 dereferenceable(24) %0) unnamed_addr #1 align 2 personality ptr @__gxx_personality_v0 {
  %2 = alloca ptr, align 8
  store ptr %0, ptr %2, align 8, !tbaa !1372
  %3 = load ptr, ptr %2, align 8
  %4 = getelementptr inbounds nuw %"struct.std::_Vector_base.736", ptr %3, i32 0, i32 0
  %5 = getelementptr inbounds nuw %"struct.std::_Vector_base<NonCopyable, std::allocator<NonCopyable>>::_Vector_impl_data", ptr %4, i32 0, i32 0
  %6 = load ptr, ptr %5, align 8, !tbaa !1380
  %7 = getelementptr inbounds nuw %"struct.std::_Vector_base.736", ptr %3, i32 0, i32 0
  %8 = getelementptr inbounds nuw %"struct.std::_Vector_base<NonCopyable, std::allocator<NonCopyable>>::_Vector_impl_data", ptr %7, i32 0, i32 2
  %9 = load ptr, ptr %8, align 8, !tbaa !1384
  %10 = getelementptr inbounds nuw %"struct.std::_Vector_base.736", ptr %3, i32 0, i32 0
  %11 = getelementptr inbounds nuw %"struct.std::_Vector_base<NonCopyable, std::allocator<NonCopyable>>::_Vector_impl_data", ptr %10, i32 0, i32 0
  %12 = load ptr, ptr %11, align 8, !tbaa !1380
  %13 = ptrtoint ptr %9 to i64
  %14 = ptrtoint ptr %12 to i64
  %15 = sub i64 %13, %14
  invoke void @_ZNSt12_Vector_baseIZL30nanobind_init_test_classes_extRN8nanobind7module_EE11NonCopyableSaIS3_EE13_M_deallocateEPS3_m(ptr noundef nonnull align 8 dereferenceable(24) %3, ptr noundef %6, i64 noundef %15) #25
          to label %16 unwind label %18

16:                                               ; preds = %1
  %17 = getelementptr inbounds nuw %"struct.std::_Vector_base.736", ptr %3, i32 0, i32 0
  call void @_ZNSt15__new_allocatorIZL30nanobind_init_test_classes_extRN8nanobind7module_EE11NonCopyableED2Ev(ptr noundef nonnull align 8 dereferenceable(24) %17) #24
  ret void

18:                                               ; preds = %1
  %19 = landingpad { ptr, i32 }
          catch ptr null
  %20 = extractvalue { ptr, i32 } %19, 0
  call void @__clang_call_terminate(ptr %20) #26
  unreachable
}

; Function Attrs: inlinehint mustprogress optsize uwtable
define internal void @_ZSt8_DestroyIPZL30nanobind_init_test_classes_extRN8nanobind7module_EE11NonCopyableS3_EvT_S5_RSaIT0_E(ptr noundef %0, ptr noundef %1, ptr noundef nonnull align 1 dereferenceable(1) %2) #14 {
  %4 = alloca ptr, align 8
  %5 = alloca ptr, align 8
  %6 = alloca ptr, align 8
  store ptr %0, ptr %4, align 8, !tbaa !1387
  store ptr %1, ptr %5, align 8, !tbaa !1387
  store ptr %2, ptr %6, align 8, !tbaa !1376
  %7 = load ptr, ptr %4, align 8, !tbaa !1387
  %8 = load ptr, ptr %5, align 8, !tbaa !1387
  call void @_ZSt8_DestroyIPZL30nanobind_init_test_classes_extRN8nanobind7module_EE11NonCopyableEvT_S5_(ptr noundef %7, ptr noundef %8) #25
  ret void
}

; Function Attrs: mustprogress nounwind optsize uwtable
define internal noundef nonnull align 1 dereferenceable(1) ptr @_ZNSt12_Vector_baseIZL30nanobind_init_test_classes_extRN8nanobind7module_EE11NonCopyableSaIS3_EE19_M_get_Tp_allocatorEv(ptr noundef nonnull align 8 dereferenceable(24) %0) #1 align 2 {
  %2 = alloca ptr, align 8
  store ptr %0, ptr %2, align 8, !tbaa !1372
  %3 = load ptr, ptr %2, align 8
  %4 = getelementptr inbounds nuw %"struct.std::_Vector_base.736", ptr %3, i32 0, i32 0
  ret ptr %4
}

; Function Attrs: mustprogress nounwind optsize uwtable
define internal void @_ZNSt6vectorIZL30nanobind_init_test_classes_extRN8nanobind7module_EE11NonCopyableSaIS3_EED2Ev(ptr noundef nonnull align 8 dereferenceable(24) %0) unnamed_addr #1 align 2 personality ptr @__gxx_personality_v0 {
  %2 = alloca ptr, align 8
  store ptr %0, ptr %2, align 8, !tbaa !1370
  %3 = load ptr, ptr %2, align 8
  %4 = getelementptr inbounds nuw %"struct.std::_Vector_base.736", ptr %3, i32 0, i32 0
  %5 = getelementptr inbounds nuw %"struct.std::_Vector_base<NonCopyable, std::allocator<NonCopyable>>::_Vector_impl_data", ptr %4, i32 0, i32 0
  %6 = load ptr, ptr %5, align 8, !tbaa !1380
  %7 = getelementptr inbounds nuw %"struct.std::_Vector_base.736", ptr %3, i32 0, i32 0
  %8 = getelementptr inbounds nuw %"struct.std::_Vector_base<NonCopyable, std::allocator<NonCopyable>>::_Vector_impl_data", ptr %7, i32 0, i32 1
  %9 = load ptr, ptr %8, align 8, !tbaa !1383
  %10 = call noundef nonnull align 1 dereferenceable(1) ptr @_ZNSt12_Vector_baseIZL30nanobind_init_test_classes_extRN8nanobind7module_EE11NonCopyableSaIS3_EE19_M_get_Tp_allocatorEv(ptr noundef nonnull align 8 dereferenceable(24) %3) #24
  invoke void @_ZSt8_DestroyIPZL30nanobind_init_test_classes_extRN8nanobind7module_EE11NonCopyableS3_EvT_S5_RSaIT0_E(ptr noundef %6, ptr noundef %9, ptr noundef nonnull align 1 dereferenceable(1) %10) #25
          to label %11 unwind label %12

11:                                               ; preds = %1
  call void @_ZNSt12_Vector_baseIZL30nanobind_init_test_classes_extRN8nanobind7module_EE11NonCopyableSaIS3_EED2Ev(ptr noundef nonnull align 8 dereferenceable(24) %3) #24
  ret void

12:                                               ; preds = %1
  %13 = landingpad { ptr, i32 }
          catch ptr null
  %14 = extractvalue { ptr, i32 } %13, 0
  call void @__clang_call_terminate(ptr %14) #26
  unreachable
}

; Function Attrs: mustprogress nounwind optsize uwtable
define internal void @_ZN8nanobind6detail13wrap_destructISt6vectorIZL30nanobind_init_test_classes_extRNS_7module_EE11NonCopyableSaIS5_EEEEvPv(ptr noundef %0) #1 {
  %2 = alloca ptr, align 8
  store ptr %0, ptr %2, align 8, !tbaa !23
  %3 = load ptr, ptr %2, align 8, !tbaa !23
  call void @_ZNSt6vectorIZL30nanobind_init_test_classes_extRN8nanobind7module_EE11NonCopyableSaIS3_EED2Ev(ptr noundef nonnull align 8 dereferenceable(24) %3) #24
  ret void
}