; Function Attrs: mustprogress nounwind optsize uwtable
define internal void @_ZN8nanobind6detail13wrap_destructISt6vectorIZL30nanobind_init_test_classes_extRNS_7module_EE11NonCopyableSaIS5_EEEEvPv(ptr noundef readonly captures(none) %0) #0 personality ptr @__gxx_personality_v0 {
  %.val = load ptr, ptr %0, align 8
  %.not.i.i.i = icmp eq ptr %.val, null
  br i1 %.not.i.i.i, label %_ZNSt6vectorIZL30nanobind_init_test_classes_extRN8nanobind7module_EE11NonCopyableSaIS3_EED2Ev.exit, label %2

2:                                                ; preds = %1
  %3 = getelementptr i8, ptr %0, i64 16
  %.val1 = load ptr, ptr %3, align 8
  %4 = ptrtoint ptr %.val1 to i64
  %5 = ptrtoint ptr %.val to i64
  %6 = sub i64 %4, %5
  tail call void @_ZdlPvm(ptr noundef nonnull %.val, i64 noundef %6) #36
  br label %_ZNSt6vectorIZL30nanobind_init_test_classes_extRN8nanobind7module_EE11NonCopyableSaIS3_EED2Ev.exit

_ZNSt6vectorIZL30nanobind_init_test_classes_extRN8nanobind7module_EE11NonCopyableSaIS3_EED2Ev.exit: ; preds = %1, %2
  ret void
}